target datalayout = "e-m:e-p270:32:32-p271:32:32-p272:64:64-i64:64-i128:128-f80:128-n8:16:32:64-S128"
target triple = "x86_64-pc-linux-gnu"

%class.anon.305 = type { i8 }

; Function Attrs: inlinehint mustprogress nounwind uwtable
define internal void @_ZZN9grpc_core11CallFilters12StackBuilder14AddOwnedObjectINS_12_GLOBAL__N_122ServerCallTracerFilterEEEvSt10unique_ptrIT_St14default_deleteIS6_EEENKUlPvE_clESA_(ptr noundef nonnull align 1 dereferenceable(1) %0, ptr noundef %1) #10 align 2 {
  %3 = alloca ptr, align 8
  %4 = alloca ptr, align 8
  store ptr %0, ptr %3, align 8, !tbaa !41
  store ptr %1, ptr %4, align 8, !tbaa !41
  %5 = load ptr, ptr %4, align 8, !tbaa !41
  %6 = icmp eq ptr %5, null
  br i1 %6, label %11, label %7

7:                                                ; preds = %2
  %8 = load ptr, ptr %5, align 8, !tbaa !46
  %9 = getelementptr inbounds ptr, ptr %8, i64 5
  %10 = load ptr, ptr %9, align 8
  call void %10(ptr noundef nonnull align 8 dereferenceable(8) %5) #3
  br label %11

11:                                               ; preds = %7, %2
  ret void
}

; Function Attrs: inlinehint mustprogress uwtable
define internal void @_ZZN9grpc_core11CallFilters12StackBuilder14AddOwnedObjectINS_12_GLOBAL__N_122ServerCallTracerFilterEEEvSt10unique_ptrIT_St14default_deleteIS6_EEENUlPvE_8__invokeESA_(ptr noundef %0) #17 align 2 {
  %2 = alloca ptr, align 8
  %3 = alloca %class.anon.305, align 1
  store ptr %0, ptr %2, align 8, !tbaa !41
  %4 = load ptr, ptr %2, align 8, !tbaa !41
  call void @_ZZN9grpc_core11CallFilters12StackBuilder14AddOwnedObjectINS_12_GLOBAL__N_122ServerCallTracerFilterEEEvSt10unique_ptrIT_St14default_deleteIS6_EEENKUlPvE_clESA_(ptr noundef nonnull align 1 dereferenceable(1) %3, ptr noundef %4)
  ret void
}