; Function Attrs: inlinehint mustprogress uwtable
define internal void @_ZZN9grpc_core11CallFilters12StackBuilder14AddOwnedObjectINS_12_GLOBAL__N_122ServerCallTracerFilterEEEvSt10unique_ptrIT_St14default_deleteIS6_EEENUlPvE_8__invokeESA_(ptr noundef %0) #26 align 2 {
  %2 = icmp eq ptr %0, null
  br i1 %2, label %_ZZN9grpc_core11CallFilters12StackBuilder14AddOwnedObjectINS_12_GLOBAL__N_122ServerCallTracerFilterEEEvSt10unique_ptrIT_St14default_deleteIS6_EEENKUlPvE_clESA_.exit, label %3

3:                                                ; preds = %1
  %4 = load ptr, ptr %0, align 8, !tbaa !19
  %5 = getelementptr inbounds nuw i8, ptr %4, i64 40
  %6 = load ptr, ptr %5, align 8
  tail call void %6(ptr noundef nonnull align 8 dereferenceable(8) %0) #31
  br label %_ZZN9grpc_core11CallFilters12StackBuilder14AddOwnedObjectINS_12_GLOBAL__N_122ServerCallTracerFilterEEEvSt10unique_ptrIT_St14default_deleteIS6_EEENKUlPvE_clESA_.exit

_ZZN9grpc_core11CallFilters12StackBuilder14AddOwnedObjectINS_12_GLOBAL__N_122ServerCallTracerFilterEEEvSt10unique_ptrIT_St14default_deleteIS6_EEENKUlPvE_clESA_.exit: ; preds = %1, %3
  ret void
}